(lp0
S'poi'
p1
aS'to_poi_ratio'
p2
aS'salary'
p3
aS'deferral_payments'
p4
aS'total_payments'
p5
aS'loan_advances'
p6
aS'bonus'
p7
aS'restricted_stock_deferred'
p8
aS'deferred_income'
p9
aS'total_stock_value'
p10
aS'expenses'
p11
aS'exercised_stock_options'
p12
aS'other'
p13
aS'long_term_incentive'
p14
aS'restricted_stock'
p15
aS'director_fees'
p16
aS'shared_receipt_with_poi'
p17
aS'from_messages'
p18
a.